#include <math.h>
#include <stdio.h>
#include <stdlib.h>
#include <string.h>


int main()
{
	int k,j,n,i;
	double sum=0,ave=0,s=0,out;
	double sz[100];
	scanf("%d",&k);
	for(j=1;j<=k;j++){
		scanf("%d",&n);
		for(i=0;i<n;i++){
			scanf("%lf",&*(sz+i));
			sum=sum+*(sz+i);
		}
		ave=sum/n;
		for(i=0;i<n;i++){
			s=s+(*(sz+i)-ave)*(*(sz+i)-ave);
		}
		out=sqrt(s/n);
		printf("%.5f\n",out);
		sum=0;
		s=0;
	}
	return 0;
}
